target datalayout = "e-m:e-p270:32:32-p271:32:32-p272:64:64-i64:64-i128:128-f80:128-n8:16:32:64-S128"
target triple = "x86_64-pc-linux-gnu"

%struct.strbuf = type { i64, i64, ptr }

@strbuf_slopbuf = external global [0 x i8], align 1
@.str.63 = private unnamed_addr constant [11 x i8] c"./strbuf.h\00", align 1
@.str.64 = private unnamed_addr constant [30 x i8] c"strbuf_setlen() beyond buffer\00", align 1

; Function Attrs: inlinehint nounwind uwtable
define internal i64 @strbuf_avail(ptr noundef %0) #3 {
  %2 = alloca ptr, align 8
  store ptr %0, ptr %2, align 8, !tbaa !65
  %3 = load ptr, ptr %2, align 8, !tbaa !65
  %4 = getelementptr inbounds nuw %struct.strbuf, ptr %3, i32 0, i32 0
  %5 = load i64, ptr %4, align 8, !tbaa !67
  %6 = icmp ne i64 %5, 0
  br i1 %6, label %7, label %16

7:                                                ; preds = %1
  %8 = load ptr, ptr %2, align 8, !tbaa !65
  %9 = getelementptr inbounds nuw %struct.strbuf, ptr %8, i32 0, i32 0
  %10 = load i64, ptr %9, align 8, !tbaa !67
  %11 = load ptr, ptr %2, align 8, !tbaa !65
  %12 = getelementptr inbounds nuw %struct.strbuf, ptr %11, i32 0, i32 1
  %13 = load i64, ptr %12, align 8, !tbaa !68
  %14 = sub i64 %10, %13
  %15 = sub i64 %14, 1
  br label %17

16:                                               ; preds = %1
  br label %17

17:                                               ; preds = %16, %7
  %18 = phi i64 [ %15, %7 ], [ 0, %16 ]
  ret i64 %18
}

; Function Attrs: inlinehint nounwind uwtable
define internal void @strbuf_setlen(ptr noundef %0, i64 noundef %1) #3 {
  %3 = alloca ptr, align 8
  %4 = alloca i64, align 8
  store ptr %0, ptr %3, align 8, !tbaa !65
  store i64 %1, ptr %4, align 8, !tbaa !15
  %5 = load i64, ptr %4, align 8, !tbaa !15
  %6 = load ptr, ptr %3, align 8, !tbaa !65
  %7 = getelementptr inbounds nuw %struct.strbuf, ptr %6, i32 0, i32 0
  %8 = load i64, ptr %7, align 8, !tbaa !67
  %9 = icmp ne i64 %8, 0
  br i1 %9, label %10, label %15

10:                                               ; preds = %2
  %11 = load ptr, ptr %3, align 8, !tbaa !65
  %12 = getelementptr inbounds nuw %struct.strbuf, ptr %11, i32 0, i32 0
  %13 = load i64, ptr %12, align 8, !tbaa !67
  %14 = sub i64 %13, 1
  br label %16

15:                                               ; preds = %2
  br label %16

16:                                               ; preds = %15, %10
  %17 = phi i64 [ %14, %10 ], [ 0, %15 ]
  %18 = icmp ugt i64 %5, %17
  br i1 %18, label %19, label %20

19:                                               ; preds = %16
  call void (ptr, i32, ptr, ...) @BUG_fl(ptr noundef @.str.63, i32 noundef 167, ptr noundef @.str.64) #15
  unreachable

20:                                               ; preds = %16
  %21 = load i64, ptr %4, align 8, !tbaa !15
  %22 = load ptr, ptr %3, align 8, !tbaa !65
  %23 = getelementptr inbounds nuw %struct.strbuf, ptr %22, i32 0, i32 1
  store i64 %21, ptr %23, align 8, !tbaa !68
  %24 = load ptr, ptr %3, align 8, !tbaa !65
  %25 = getelementptr inbounds nuw %struct.strbuf, ptr %24, i32 0, i32 2
  %26 = load ptr, ptr %25, align 8, !tbaa !62
  %27 = icmp ne ptr %26, @strbuf_slopbuf
  br i1 %27, label %28, label %34

28:                                               ; preds = %20
  %29 = load ptr, ptr %3, align 8, !tbaa !65
  %30 = getelementptr inbounds nuw %struct.strbuf, ptr %29, i32 0, i32 2
  %31 = load ptr, ptr %30, align 8, !tbaa !62
  %32 = load i64, ptr %4, align 8, !tbaa !15
  %33 = getelementptr inbounds nuw i8, ptr %31, i64 %32
  store i8 0, ptr %33, align 1, !tbaa !17
  br label %35

34:                                               ; preds = %20
  br label %35

35:                                               ; preds = %34, %28
  ret void
}

; Function Attrs: inlinehint nounwind uwtable
define internal void @strbuf_addch(ptr noundef %0, i32 noundef %1) #3 {
  %3 = alloca ptr, align 8
  %4 = alloca i32, align 4
  store ptr %0, ptr %3, align 8, !tbaa !65
  store i32 %1, ptr %4, align 4, !tbaa !4
  %5 = load ptr, ptr %3, align 8, !tbaa !65
  %6 = call i64 @strbuf_avail(ptr noundef %5)
  %7 = icmp ne i64 %6, 0
  br i1 %7, label %10, label %8

8:                                                ; preds = %2
  %9 = load ptr, ptr %3, align 8, !tbaa !65
  call void @strbuf_grow(ptr noundef %9, i64 noundef 1)
  br label %10

10:                                               ; preds = %8, %2
  %11 = load i32, ptr %4, align 4, !tbaa !4
  %12 = trunc i32 %11 to i8
  %13 = load ptr, ptr %3, align 8, !tbaa !65
  %14 = getelementptr inbounds nuw %struct.strbuf, ptr %13, i32 0, i32 2
  %15 = load ptr, ptr %14, align 8, !tbaa !62
  %16 = load ptr, ptr %3, align 8, !tbaa !65
  %17 = getelementptr inbounds nuw %struct.strbuf, ptr %16, i32 0, i32 1
  %18 = load i64, ptr %17, align 8, !tbaa !68
  %19 = add i64 %18, 1
  store i64 %19, ptr %17, align 8, !tbaa !68
  %20 = getelementptr inbounds nuw i8, ptr %15, i64 %18
  store i8 %12, ptr %20, align 1, !tbaa !17
  %21 = load ptr, ptr %3, align 8, !tbaa !65
  %22 = getelementptr inbounds nuw %struct.strbuf, ptr %21, i32 0, i32 2
  %23 = load ptr, ptr %22, align 8, !tbaa !62
  %24 = load ptr, ptr %3, align 8, !tbaa !65
  %25 = getelementptr inbounds nuw %struct.strbuf, ptr %24, i32 0, i32 1
  %26 = load i64, ptr %25, align 8, !tbaa !68
  %27 = getelementptr inbounds nuw i8, ptr %23, i64 %26
  store i8 0, ptr %27, align 1, !tbaa !17
  ret void
}

; Function Attrs: inlinehint nounwind uwtable
define internal i32 @git_is_dir_sep(i32 noundef %0) #3 {
  %2 = alloca i32, align 4
  store i32 %0, ptr %2, align 4, !tbaa !4
  %3 = load i32, ptr %2, align 4, !tbaa !4
  %4 = icmp eq i32 %3, 47
  %5 = zext i1 %4 to i32
  ret i32 %5
}

; Function Attrs: nounwind uwtable
define internal void @sanitize_client(ptr noundef %0, ptr noundef %1) #0 {
  %3 = alloca ptr, align 8
  %4 = alloca ptr, align 8
  store ptr %0, ptr %3, align 8, !tbaa !65
  store ptr %1, ptr %4, align 8, !tbaa !11
  br label %5

5:                                                ; preds = %44, %2
  %6 = load ptr, ptr %4, align 8, !tbaa !11
  %7 = load i8, ptr %6, align 1, !tbaa !17
  %8 = icmp ne i8 %7, 0
  br i1 %8, label %9, label %47

9:                                                ; preds = %5
  %10 = load ptr, ptr %4, align 8, !tbaa !11
  %11 = load i8, ptr %10, align 1, !tbaa !17
  %12 = sext i8 %11 to i32
  %13 = call i32 @git_is_dir_sep(i32 noundef %12)
  %14 = icmp ne i32 %13, 0
  br i1 %14, label %15, label %16

15:                                               ; preds = %9
  br label %44

16:                                               ; preds = %9
  %17 = load ptr, ptr %4, align 8, !tbaa !11
  %18 = load i8, ptr %17, align 1, !tbaa !17
  %19 = sext i8 %18 to i32
  %20 = icmp eq i32 %19, 46
  br i1 %20, label %21, label %39

21:                                               ; preds = %16
  %22 = load ptr, ptr %3, align 8, !tbaa !65
  %23 = getelementptr inbounds nuw %struct.strbuf, ptr %22, i32 0, i32 1
  %24 = load i64, ptr %23, align 8, !tbaa !68
  %25 = icmp ne i64 %24, 0
  br i1 %25, label %26, label %38

26:                                               ; preds = %21
  %27 = load ptr, ptr %3, align 8, !tbaa !65
  %28 = getelementptr inbounds nuw %struct.strbuf, ptr %27, i32 0, i32 2
  %29 = load ptr, ptr %28, align 8, !tbaa !62
  %30 = load ptr, ptr %3, align 8, !tbaa !65
  %31 = getelementptr inbounds nuw %struct.strbuf, ptr %30, i32 0, i32 1
  %32 = load i64, ptr %31, align 8, !tbaa !68
  %33 = sub i64 %32, 1
  %34 = getelementptr inbounds nuw i8, ptr %29, i64 %33
  %35 = load i8, ptr %34, align 1, !tbaa !17
  %36 = sext i8 %35 to i32
  %37 = icmp eq i32 %36, 46
  br i1 %37, label %38, label %39

38:                                               ; preds = %26, %21
  br label %44

39:                                               ; preds = %26, %16
  %40 = load ptr, ptr %3, align 8, !tbaa !65
  %41 = load ptr, ptr %4, align 8, !tbaa !11
  %42 = load i8, ptr %41, align 1, !tbaa !17
  %43 = sext i8 %42 to i32
  call void @strbuf_addch(ptr noundef %40, i32 noundef %43)
  br label %44

44:                                               ; preds = %39, %38, %15
  %45 = load ptr, ptr %4, align 8, !tbaa !11
  %46 = getelementptr inbounds nuw i8, ptr %45, i32 1
  store ptr %46, ptr %4, align 8, !tbaa !11
  br label %5, !llvm.loop !74

47:                                               ; preds = %5
  br label %48

48:                                               ; preds = %67, %47
  %49 = load ptr, ptr %3, align 8, !tbaa !65
  %50 = getelementptr inbounds nuw %struct.strbuf, ptr %49, i32 0, i32 1
  %51 = load i64, ptr %50, align 8, !tbaa !68
  %52 = icmp ne i64 %51, 0
  br i1 %52, label %53, label %65

53:                                               ; preds = %48
  %54 = load ptr, ptr %3, align 8, !tbaa !65
  %55 = getelementptr inbounds nuw %struct.strbuf, ptr %54, i32 0, i32 2
  %56 = load ptr, ptr %55, align 8, !tbaa !62
  %57 = load ptr, ptr %3, align 8, !tbaa !65
  %58 = getelementptr inbounds nuw %struct.strbuf, ptr %57, i32 0, i32 1
  %59 = load i64, ptr %58, align 8, !tbaa !68
  %60 = sub i64 %59, 1
  %61 = getelementptr inbounds nuw i8, ptr %56, i64 %60
  %62 = load i8, ptr %61, align 1, !tbaa !17
  %63 = sext i8 %62 to i32
  %64 = icmp eq i32 %63, 46
  br label %65

65:                                               ; preds = %53, %48
  %66 = phi i1 [ false, %48 ], [ %64, %53 ]
  br i1 %66, label %67, label %73

67:                                               ; preds = %65
  %68 = load ptr, ptr %3, align 8, !tbaa !65
  %69 = load ptr, ptr %3, align 8, !tbaa !65
  %70 = getelementptr inbounds nuw %struct.strbuf, ptr %69, i32 0, i32 1
  %71 = load i64, ptr %70, align 8, !tbaa !68
  %72 = sub i64 %71, 1
  call void @strbuf_setlen(ptr noundef %68, i64 noundef %72)
  br label %48, !llvm.loop !75

73:                                               ; preds = %65
  ret void
}