; Function Attrs: nounwind uwtable
define internal fastcc void @sanitize_client(ptr noundef nonnull %0, ptr noundef readonly captures(none) %1) unnamed_addr #0 {
  %3 = getelementptr inbounds nuw i8, ptr %0, i64 8
  %4 = getelementptr inbounds nuw i8, ptr %0, i64 16
  br label %5

5:                                                ; preds = %25, %2
  %.0 = phi ptr [ %1, %2 ], [ %26, %25 ]
  %6 = load i8, ptr %.0, align 1, !tbaa !9
  switch i8 %6, label %16 [
    i8 0, label %.preheader
    i8 47, label %25
    i8 46, label %8
  ]

.preheader:                                       ; preds = %5
  %7 = load i64, ptr %3, align 8, !tbaa !23
  %.not1721 = icmp eq i64 %7, 0
  br i1 %.not1721, label %.critedge, label %.lr.ph

8:                                                ; preds = %5
  %9 = load i64, ptr %3, align 8, !tbaa !23
  %.not19 = icmp eq i64 %9, 0
  br i1 %.not19, label %25, label %10

10:                                               ; preds = %8
  %11 = load ptr, ptr %4, align 8, !tbaa !27
  %12 = getelementptr i8, ptr %11, i64 %9
  %13 = getelementptr i8, ptr %12, i64 -1
  %14 = load i8, ptr %13, align 1, !tbaa !9
  %15 = icmp eq i8 %14, 46
  br i1 %15, label %25, label %16

16:                                               ; preds = %5, %10
  %17 = load i64, ptr %0, align 8, !tbaa !26
  %.not.i.i = icmp eq i64 %17, 0
  br i1 %.not.i.i, label %strbuf_avail.exit.thread.i, label %strbuf_avail.exit.i

strbuf_avail.exit.i:                              ; preds = %16
  %18 = load i64, ptr %3, align 8, !tbaa !23
  %.neg.i = add i64 %18, 1
  %.not.i = icmp eq i64 %17, %.neg.i
  br i1 %.not.i, label %strbuf_avail.exit.thread.i, label %strbuf_addch.exit

strbuf_avail.exit.thread.i:                       ; preds = %strbuf_avail.exit.i, %16
  tail call void @strbuf_grow(ptr noundef nonnull %0, i64 noundef 1) #21
  %.pre.i = load i64, ptr %3, align 8, !tbaa !23
  %.pre7.i = add i64 %.pre.i, 1
  br label %strbuf_addch.exit

strbuf_addch.exit:                                ; preds = %strbuf_avail.exit.i, %strbuf_avail.exit.thread.i
  %.pre-phi.i = phi i64 [ %.pre7.i, %strbuf_avail.exit.thread.i ], [ %.neg.i, %strbuf_avail.exit.i ]
  %19 = phi i64 [ %.pre.i, %strbuf_avail.exit.thread.i ], [ %18, %strbuf_avail.exit.i ]
  %20 = load ptr, ptr %4, align 8, !tbaa !27
  store i64 %.pre-phi.i, ptr %3, align 8, !tbaa !23
  %21 = getelementptr inbounds nuw i8, ptr %20, i64 %19
  store i8 %6, ptr %21, align 1, !tbaa !9
  %22 = load ptr, ptr %4, align 8, !tbaa !27
  %23 = load i64, ptr %3, align 8, !tbaa !23
  %24 = getelementptr inbounds nuw i8, ptr %22, i64 %23
  store i8 0, ptr %24, align 1, !tbaa !9
  br label %25

25:                                               ; preds = %5, %8, %10, %strbuf_addch.exit
  %26 = getelementptr inbounds nuw i8, ptr %.0, i64 1
  br label %5, !llvm.loop !92

.lr.ph:                                           ; preds = %.preheader, %strbuf_setlen.exit
  %27 = phi i64 [ %39, %strbuf_setlen.exit ], [ %7, %.preheader ]
  %28 = load ptr, ptr %4, align 8, !tbaa !27
  %29 = add i64 %27, -1
  %30 = getelementptr inbounds nuw i8, ptr %28, i64 %29
  %31 = load i8, ptr %30, align 1, !tbaa !9
  %32 = icmp eq i8 %31, 46
  br i1 %32, label %33, label %.critedge

33:                                               ; preds = %.lr.ph
  %34 = load i64, ptr %0, align 8, !tbaa !26
  %spec.select.i = tail call i64 @llvm.usub.sat.i64(i64 %34, i64 1)
  %35 = icmp ugt i64 %29, %spec.select.i
  br i1 %35, label %36, label %37

36:                                               ; preds = %33
  tail call void (ptr, i32, ptr, ...) @BUG_fl(ptr noundef nonnull @.str.63, i32 noundef 167, ptr noundef nonnull @.str.64) #23
  unreachable

37:                                               ; preds = %33
  store i64 %29, ptr %3, align 8, !tbaa !23
  %.not9.i = icmp eq ptr %28, @strbuf_slopbuf
  br i1 %.not9.i, label %strbuf_setlen.exit, label %38

38:                                               ; preds = %37
  store i8 0, ptr %30, align 1, !tbaa !9
  %.pre = load i64, ptr %3, align 8, !tbaa !23
  br label %strbuf_setlen.exit

strbuf_setlen.exit:                               ; preds = %37, %38
  %39 = phi i64 [ %29, %37 ], [ %.pre, %38 ]
  %.not17 = icmp eq i64 %39, 0
  br i1 %.not17, label %.critedge, label %.lr.ph, !llvm.loop !93

.critedge:                                        ; preds = %.lr.ph, %strbuf_setlen.exit, %.preheader
  ret void
}